target datalayout = "e-m:e-p270:32:32-p271:32:32-p272:64:64-i64:64-i128:128-f80:128-n8:16:32:64-S128"
target triple = "x86_64-pc-linux-gnu"

%struct.AVCodecContext = type { ptr, i32, i32, ptr, i32, i32, ptr, ptr, ptr, i64, i32, i32, ptr, i32, %struct.AVRational, %struct.AVRational, %struct.AVRational, i32, i32, i32, i32, i32, %struct.AVRational, i32, i32, i32, i32, i32, i32, i32, i32, i32, i32, i32, ptr, ptr, i32, float, float, float, float, float, float, float, float, float, i32, i32, i32, i32, i32, i32, i32, i32, i32, i32, i32, i32, ptr, ptr, ptr, i32, i32, i32, i32, i32, i32, i32, i32, i32, i32, %struct.AVChannelLayout, i32, i32, i32, i32, i32, i32, i32, i32, ptr, i32, i32, i32, float, float, i32, i32, i32, i32, i32, ptr, i64, i64, float, float, i32, i32, ptr, ptr, i32, i32, i32, i32, i32, ptr, ptr, ptr, ptr, i32, i32, [8 x i64], i32, i32, i32, i32, i32, i32, i32, ptr, ptr, i32, i32, i32, i32, i32, i32, i32, i32, i32, i32, ptr, ptr, i32, i32, ptr, ptr, ptr, ptr, i32, i32, i64, i32, i32, i64, ptr, i64, ptr, i32, ptr, i32 }
%struct.AVRational = type { i32, i32 }
%struct.AVChannelLayout = type { i32, i32, %union.anon.0, ptr }
%union.anon.0 = type { i64 }
%struct.MXpegDecodeContext = type { %struct.MJpegDecodeContext, [2 x ptr], i32, i32, i32, ptr, i32, i32, ptr, i32, i32 }
%struct.MJpegDecodeContext = type { ptr, ptr, %struct.GetBitContext, i32, i32, i32, ptr, [4 x [64 x i16]], [3 x [4 x %struct.VLC]], [4 x i32], i32, i32, i32, i32, i32, i32, i32, i32, i32, [4 x i8], [4 x i8], i32, i32, i32, i32, i32, i32, i32, i32, i32, i32, i32, i32, i32, i32, i32, i32, i32, [4 x i32], [4 x i32], [4 x i32], [4 x i32], [4 x i32], [4 x i32], [4 x i32], [4 x i32], [4 x i32], [4 x i32], [4 x i32], i32, i32, [4 x i32], [4 x i32], ptr, ptr, i32, [4 x i32], ptr, [64 x i16], [4 x ptr], [4 x ptr], [4 x i64], i32, i32, [64 x i8], %struct.BlockDSPContext, %struct.HpelDSPContext, %struct.IDCTDSPContext, i32, i32, i32, i32, i32, i32, i32, i32, i32, ptr, i32, i32, ptr, ptr, ptr, ptr, i32, i32, ptr, i32, i32, ptr, i64, ptr, i64, [2 x [4 x [16 x i8]]], [2 x [4 x [256 x i8]]], i32, i32, ptr, ptr, [8 x i8] }
%struct.GetBitContext = type { ptr, ptr, i32, i32, i32 }
%struct.VLC = type { i32, ptr, i32, i32 }
%struct.BlockDSPContext = type { ptr, ptr, [2 x ptr] }
%struct.HpelDSPContext = type { [4 x [4 x ptr]], [4 x [4 x ptr]], [4 x [4 x ptr]], [4 x ptr] }
%struct.IDCTDSPContext = type { ptr, ptr, ptr, ptr, ptr, ptr, [64 x i8], i32, i32 }

; Function Attrs: cold nounwind optsize uwtable
define internal i32 @mxpeg_decode_init(ptr noundef %0) #0 {
  %2 = alloca i32, align 4
  %3 = alloca ptr, align 8
  %4 = alloca ptr, align 8
  %5 = alloca i32, align 4
  store ptr %0, ptr %3, align 8, !tbaa !4
  call void @llvm.lifetime.start.p0(i64 8, ptr %4) #8
  %6 = load ptr, ptr %3, align 8, !tbaa !4
  %7 = getelementptr inbounds nuw %struct.AVCodecContext, ptr %6, i32 0, i32 6
  %8 = load ptr, ptr %7, align 8, !tbaa !9
  store ptr %8, ptr %4, align 8, !tbaa !29
  %9 = call ptr @av_frame_alloc()
  %10 = load ptr, ptr %4, align 8, !tbaa !29
  %11 = getelementptr inbounds nuw %struct.MXpegDecodeContext, ptr %10, i32 0, i32 1
  %12 = getelementptr inbounds [2 x ptr], ptr %11, i64 0, i64 0
  store ptr %9, ptr %12, align 16, !tbaa !31
  %13 = call ptr @av_frame_alloc()
  %14 = load ptr, ptr %4, align 8, !tbaa !29
  %15 = getelementptr inbounds nuw %struct.MXpegDecodeContext, ptr %14, i32 0, i32 1
  %16 = getelementptr inbounds [2 x ptr], ptr %15, i64 0, i64 1
  store ptr %13, ptr %16, align 8, !tbaa !31
  %17 = load ptr, ptr %4, align 8, !tbaa !29
  %18 = getelementptr inbounds nuw %struct.MXpegDecodeContext, ptr %17, i32 0, i32 1
  %19 = getelementptr inbounds [2 x ptr], ptr %18, i64 0, i64 0
  %20 = load ptr, ptr %19, align 16, !tbaa !31
  %21 = icmp ne ptr %20, null
  br i1 %21, label %22, label %28

22:                                               ; preds = %1
  %23 = load ptr, ptr %4, align 8, !tbaa !29
  %24 = getelementptr inbounds nuw %struct.MXpegDecodeContext, ptr %23, i32 0, i32 1
  %25 = getelementptr inbounds [2 x ptr], ptr %24, i64 0, i64 1
  %26 = load ptr, ptr %25, align 8, !tbaa !31
  %27 = icmp ne ptr %26, null
  br i1 %27, label %29, label %28

28:                                               ; preds = %22, %1
  store i32 -12, ptr %2, align 4
  store i32 1, ptr %5, align 4
  br label %39

29:                                               ; preds = %22
  %30 = load ptr, ptr %4, align 8, !tbaa !29
  %31 = getelementptr inbounds nuw %struct.MXpegDecodeContext, ptr %30, i32 0, i32 1
  %32 = getelementptr inbounds [2 x ptr], ptr %31, i64 0, i64 0
  %33 = load ptr, ptr %32, align 16, !tbaa !31
  %34 = load ptr, ptr %4, align 8, !tbaa !29
  %35 = getelementptr inbounds nuw %struct.MXpegDecodeContext, ptr %34, i32 0, i32 0
  %36 = getelementptr inbounds nuw %struct.MJpegDecodeContext, ptr %35, i32 0, i32 54
  store ptr %33, ptr %36, align 8, !tbaa !33
  %37 = load ptr, ptr %3, align 8, !tbaa !4
  %38 = call i32 @ff_mjpeg_decode_init(ptr noundef %37)
  store i32 %38, ptr %2, align 4
  store i32 1, ptr %5, align 4
  br label %39

39:                                               ; preds = %29, %28
  call void @llvm.lifetime.end.p0(i64 8, ptr %4) #8
  %40 = load i32, ptr %2, align 4
  ret i32 %40
}