; Function Attrs: cold nounwind optsize uwtable
define internal i32 @mxpeg_decode_init(ptr noundef %0) #0 {
  %2 = getelementptr inbounds nuw i8, ptr %0, i64 32
  %3 = load ptr, ptr %2, align 8, !tbaa !4
  %4 = tail call ptr @av_frame_alloc() #6
  %5 = getelementptr inbounds nuw i8, ptr %3, i64 4480
  store ptr %4, ptr %5, align 16, !tbaa !27
  %6 = tail call ptr @av_frame_alloc() #6
  %7 = getelementptr inbounds nuw i8, ptr %3, i64 4488
  store ptr %6, ptr %7, align 8, !tbaa !27
  %8 = load ptr, ptr %5, align 16, !tbaa !27
  %.not = icmp eq ptr %8, null
  %.not9 = icmp eq ptr %6, null
  %or.cond = select i1 %.not, i1 true, i1 %.not9
  br i1 %or.cond, label %12, label %9

9:                                                ; preds = %1
  %10 = getelementptr inbounds nuw i8, ptr %3, i64 1224
  store ptr %8, ptr %10, align 8, !tbaa !29
  %11 = tail call i32 @ff_mjpeg_decode_init(ptr noundef nonnull %0) #6
  br label %12

12:                                               ; preds = %1, %9
  %.0 = phi i32 [ %11, %9 ], [ -12, %1 ]
  ret i32 %.0
}